; Function Attrs: nounwind uwtable
define internal noundef i32 @ftp_close(ptr noundef readonly captures(none) %0) #0 {
  %2 = getelementptr inbounds nuw i8, ptr %0, i64 16
  %3 = load ptr, ptr %2, align 8, !tbaa !4
  %4 = getelementptr inbounds nuw i8, ptr %3, i64 8
  %5 = tail call i32 @ffurl_closep(ptr noundef nonnull %4) #10
  %6 = getelementptr inbounds nuw i8, ptr %3, i64 16
  %7 = tail call i32 @ffurl_closep(ptr noundef nonnull %6) #10
  %8 = getelementptr inbounds nuw i8, ptr %3, i64 1140
  store i32 5, ptr %8, align 4, !tbaa !23
  %9 = getelementptr inbounds nuw i8, ptr %3, i64 1080
  tail call void @av_freep(ptr noundef nonnull %9) #10
  %10 = getelementptr inbounds nuw i8, ptr %3, i64 1088
  tail call void @av_freep(ptr noundef nonnull %10) #10
  %11 = getelementptr inbounds nuw i8, ptr %3, i64 1072
  tail call void @av_freep(ptr noundef nonnull %11) #10
  %12 = getelementptr inbounds nuw i8, ptr %3, i64 1096
  tail call void @av_freep(ptr noundef nonnull %12) #10
  %13 = getelementptr inbounds nuw i8, ptr %3, i64 1152
  tail call void @av_freep(ptr noundef nonnull %13) #10
  ret i32 0
}